
testdingmicrochip.elf:     file format elf32-avr

Sections:
Idx Name          Size      VMA       LMA       File off  Algn
  0 .data         0000000a  00800100  000004f6  0000056a  2**0
                  CONTENTS, ALLOC, LOAD, DATA
  1 .text         000004f6  00000000  00000000  00000074  2**1
                  CONTENTS, ALLOC, LOAD, READONLY, CODE
  2 .comment      00000030  00000000  00000000  00000574  2**0
                  CONTENTS, READONLY
  3 .note.gnu.avr.deviceinfo 00000040  00000000  00000000  000005a4  2**2
                  CONTENTS, READONLY
  4 .debug_aranges 000000c8  00000000  00000000  000005e4  2**0
                  CONTENTS, READONLY, DEBUGGING
  5 .debug_info   000014d0  00000000  00000000  000006ac  2**0
                  CONTENTS, READONLY, DEBUGGING
  6 .debug_abbrev 00000b60  00000000  00000000  00001b7c  2**0
                  CONTENTS, READONLY, DEBUGGING
  7 .debug_line   00000813  00000000  00000000  000026dc  2**0
                  CONTENTS, READONLY, DEBUGGING
  8 .debug_frame  000001e0  00000000  00000000  00002ef0  2**2
                  CONTENTS, READONLY, DEBUGGING
  9 .debug_str    00000650  00000000  00000000  000030d0  2**0
                  CONTENTS, READONLY, DEBUGGING
 10 .debug_loc    00000942  00000000  00000000  00003720  2**0
                  CONTENTS, READONLY, DEBUGGING
 11 .debug_ranges 000000d0  00000000  00000000  00004062  2**0
                  CONTENTS, READONLY, DEBUGGING

Disassembly of section .text:

00000000 <__vectors>:
   0:	0c 94 5a 00 	jmp	0xb4	; 0xb4 <__ctors_end>
   4:	0c 94 6f 00 	jmp	0xde	; 0xde <__bad_interrupt>
   8:	0c 94 6f 00 	jmp	0xde	; 0xde <__bad_interrupt>
   c:	0c 94 6f 00 	jmp	0xde	; 0xde <__bad_interrupt>
  10:	0c 94 6f 00 	jmp	0xde	; 0xde <__bad_interrupt>
  14:	0c 94 6f 00 	jmp	0xde	; 0xde <__bad_interrupt>
  18:	0c 94 6f 00 	jmp	0xde	; 0xde <__bad_interrupt>
  1c:	0c 94 6f 00 	jmp	0xde	; 0xde <__bad_interrupt>
  20:	0c 94 6f 00 	jmp	0xde	; 0xde <__bad_interrupt>
  24:	0c 94 6f 00 	jmp	0xde	; 0xde <__bad_interrupt>
  28:	0c 94 6f 00 	jmp	0xde	; 0xde <__bad_interrupt>
  2c:	0c 94 6f 00 	jmp	0xde	; 0xde <__bad_interrupt>
  30:	0c 94 6f 00 	jmp	0xde	; 0xde <__bad_interrupt>
  34:	0c 94 6f 00 	jmp	0xde	; 0xde <__bad_interrupt>
  38:	0c 94 6f 00 	jmp	0xde	; 0xde <__bad_interrupt>
  3c:	0c 94 6f 00 	jmp	0xde	; 0xde <__bad_interrupt>
  40:	0c 94 6f 00 	jmp	0xde	; 0xde <__bad_interrupt>
  44:	0c 94 6f 00 	jmp	0xde	; 0xde <__bad_interrupt>
  48:	0c 94 6f 00 	jmp	0xde	; 0xde <__bad_interrupt>
  4c:	0c 94 6f 00 	jmp	0xde	; 0xde <__bad_interrupt>
  50:	0c 94 6f 00 	jmp	0xde	; 0xde <__bad_interrupt>
  54:	0c 94 6f 00 	jmp	0xde	; 0xde <__bad_interrupt>
  58:	0c 94 6f 00 	jmp	0xde	; 0xde <__bad_interrupt>
  5c:	0c 94 6f 00 	jmp	0xde	; 0xde <__bad_interrupt>
  60:	0c 94 6f 00 	jmp	0xde	; 0xde <__bad_interrupt>
  64:	0c 94 6f 00 	jmp	0xde	; 0xde <__bad_interrupt>
  68:	0c 94 6f 00 	jmp	0xde	; 0xde <__bad_interrupt>
  6c:	0c 94 6f 00 	jmp	0xde	; 0xde <__bad_interrupt>
  70:	0c 94 6f 00 	jmp	0xde	; 0xde <__bad_interrupt>
  74:	0c 94 6f 00 	jmp	0xde	; 0xde <__bad_interrupt>
  78:	0c 94 6f 00 	jmp	0xde	; 0xde <__bad_interrupt>
  7c:	0c 94 6f 00 	jmp	0xde	; 0xde <__bad_interrupt>
  80:	0c 94 6f 00 	jmp	0xde	; 0xde <__bad_interrupt>
  84:	0c 94 6f 00 	jmp	0xde	; 0xde <__bad_interrupt>
  88:	0c 94 6f 00 	jmp	0xde	; 0xde <__bad_interrupt>
  8c:	0c 94 6f 00 	jmp	0xde	; 0xde <__bad_interrupt>
  90:	0c 94 6f 00 	jmp	0xde	; 0xde <__bad_interrupt>
  94:	0c 94 6f 00 	jmp	0xde	; 0xde <__bad_interrupt>
  98:	0c 94 6f 00 	jmp	0xde	; 0xde <__bad_interrupt>
  9c:	0c 94 6f 00 	jmp	0xde	; 0xde <__bad_interrupt>
  a0:	0c 94 6f 00 	jmp	0xde	; 0xde <__bad_interrupt>
  a4:	0c 94 6f 00 	jmp	0xde	; 0xde <__bad_interrupt>
  a8:	0c 94 6f 00 	jmp	0xde	; 0xde <__bad_interrupt>
  ac:	0c 94 6f 00 	jmp	0xde	; 0xde <__bad_interrupt>
  b0:	0c 94 6f 00 	jmp	0xde	; 0xde <__bad_interrupt>

000000b4 <__ctors_end>:
  b4:	11 24       	eor	r1, r1
  b6:	1f be       	out	0x3f, r1	; 63
  b8:	cf ef       	ldi	r28, 0xFF	; 255
  ba:	d8 e0       	ldi	r29, 0x08	; 8
  bc:	de bf       	out	0x3e, r29	; 62
  be:	cd bf       	out	0x3d, r28	; 61

000000c0 <__do_copy_data>:
  c0:	11 e0       	ldi	r17, 0x01	; 1
  c2:	a0 e0       	ldi	r26, 0x00	; 0
  c4:	b1 e0       	ldi	r27, 0x01	; 1
  c6:	e6 ef       	ldi	r30, 0xF6	; 246
  c8:	f4 e0       	ldi	r31, 0x04	; 4
  ca:	02 c0       	rjmp	.+4      	; 0xd0 <__do_copy_data+0x10>
  cc:	05 90       	lpm	r0, Z+
  ce:	0d 92       	st	X+, r0
  d0:	aa 30       	cpi	r26, 0x0A	; 10
  d2:	b1 07       	cpc	r27, r17
  d4:	d9 f7       	brne	.-10     	; 0xcc <__do_copy_data+0xc>
  d6:	0e 94 f0 01 	call	0x3e0	; 0x3e0 <main>
  da:	0c 94 79 02 	jmp	0x4f2	; 0x4f2 <_exit>

000000de <__bad_interrupt>:
  de:	0c 94 00 00 	jmp	0	; 0x0 <__vectors>

000000e2 <init_gpio>:
}

void UART_send_string(char *s)
{
	while (*s) UART_send_char(*s++);
}
  e2:	87 b1       	in	r24, 0x07	; 7
  e4:	8e 7f       	andi	r24, 0xFE	; 254
  e6:	87 b9       	out	0x07, r24	; 7
  e8:	87 b1       	in	r24, 0x07	; 7
  ea:	8d 7f       	andi	r24, 0xFD	; 253
  ec:	87 b9       	out	0x07, r24	; 7
  ee:	8a b1       	in	r24, 0x0a	; 10
  f0:	80 66       	ori	r24, 0x60	; 96
  f2:	8a b9       	out	0x0a, r24	; 10
  f4:	8a b1       	in	r24, 0x0a	; 10
  f6:	8b 7f       	andi	r24, 0xFB	; 251
  f8:	8a b9       	out	0x0a, r24	; 10
  fa:	8b b1       	in	r24, 0x0b	; 11
  fc:	84 60       	ori	r24, 0x04	; 4
  fe:	8b b9       	out	0x0b, r24	; 11
 100:	88 b1       	in	r24, 0x08	; 8
 102:	8c 7f       	andi	r24, 0xFC	; 252
 104:	88 b9       	out	0x08, r24	; 8
 106:	08 95       	ret

00000108 <init_pwm>:
 108:	83 ea       	ldi	r24, 0xA3	; 163
 10a:	84 bd       	out	0x24, r24	; 36
 10c:	83 e0       	ldi	r24, 0x03	; 3
 10e:	85 bd       	out	0x25, r24	; 37
 110:	08 95       	ret

00000112 <ADC_init>:
 112:	80 e4       	ldi	r24, 0x40	; 64
 114:	80 93 7c 00 	sts	0x007C, r24	; 0x80007c <__TEXT_REGION_LENGTH__+0x7f807c>
 118:	87 e8       	ldi	r24, 0x87	; 135
 11a:	80 93 7a 00 	sts	0x007A, r24	; 0x80007a <__TEXT_REGION_LENGTH__+0x7f807a>
 11e:	08 95       	ret

00000120 <init_uart>:
 120:	87 e6       	ldi	r24, 0x67	; 103
 122:	90 e0       	ldi	r25, 0x00	; 0
 124:	90 93 c5 00 	sts	0x00C5, r25	; 0x8000c5 <__TEXT_REGION_LENGTH__+0x7f80c5>
 128:	80 93 c4 00 	sts	0x00C4, r24	; 0x8000c4 <__TEXT_REGION_LENGTH__+0x7f80c4>
 12c:	88 e9       	ldi	r24, 0x98	; 152
 12e:	80 93 c1 00 	sts	0x00C1, r24	; 0x8000c1 <__TEXT_REGION_LENGTH__+0x7f80c1>
 132:	08 95       	ret

00000134 <i2c_init>:
 134:	10 92 b9 00 	sts	0x00B9, r1	; 0x8000b9 <__TEXT_REGION_LENGTH__+0x7f80b9>
 138:	88 e4       	ldi	r24, 0x48	; 72
 13a:	80 93 b8 00 	sts	0x00B8, r24	; 0x8000b8 <__TEXT_REGION_LENGTH__+0x7f80b8>
 13e:	84 e0       	ldi	r24, 0x04	; 4
 140:	80 93 bc 00 	sts	0x00BC, r24	; 0x8000bc <__TEXT_REGION_LENGTH__+0x7f80bc>
 144:	08 95       	ret

00000146 <ADC_read>:
 146:	ec e7       	ldi	r30, 0x7C	; 124
 148:	f0 e0       	ldi	r31, 0x00	; 0
 14a:	90 81       	ld	r25, Z
 14c:	90 7f       	andi	r25, 0xF0	; 240
 14e:	8f 70       	andi	r24, 0x0F	; 15
 150:	89 2b       	or	r24, r25
 152:	80 83       	st	Z, r24
 154:	ea e7       	ldi	r30, 0x7A	; 122
 156:	f0 e0       	ldi	r31, 0x00	; 0
 158:	80 81       	ld	r24, Z
 15a:	80 64       	ori	r24, 0x40	; 64
 15c:	80 83       	st	Z, r24
 15e:	80 91 7a 00 	lds	r24, 0x007A	; 0x80007a <__TEXT_REGION_LENGTH__+0x7f807a>
 162:	86 fd       	sbrc	r24, 6
 164:	fc cf       	rjmp	.-8      	; 0x15e <ADC_read+0x18>
 166:	80 91 78 00 	lds	r24, 0x0078	; 0x800078 <__TEXT_REGION_LENGTH__+0x7f8078>
 16a:	90 91 79 00 	lds	r25, 0x0079	; 0x800079 <__TEXT_REGION_LENGTH__+0x7f8079>
 16e:	08 95       	ret

00000170 <dht_read_byte>:
 170:	90 e0       	ldi	r25, 0x00	; 0
 172:	80 e0       	ldi	r24, 0x00	; 0
 174:	16 c0       	rjmp	.+44     	; 0x1a2 <dht_read_byte+0x32>
 176:	4a 9b       	sbis	0x09, 2	; 9
 178:	fe cf       	rjmp	.-4      	; 0x176 <dht_read_byte+0x6>
 17a:	20 ea       	ldi	r18, 0xA0	; 160
 17c:	2a 95       	dec	r18
 17e:	f1 f7       	brne	.-4      	; 0x17c <dht_read_byte+0xc>
 180:	4a 9b       	sbis	0x09, 2	; 9
 182:	0c c0       	rjmp	.+24     	; 0x19c <dht_read_byte+0x2c>
 184:	47 e0       	ldi	r20, 0x07	; 7
 186:	50 e0       	ldi	r21, 0x00	; 0
 188:	49 1b       	sub	r20, r25
 18a:	51 09       	sbc	r21, r1
 18c:	21 e0       	ldi	r18, 0x01	; 1
 18e:	30 e0       	ldi	r19, 0x00	; 0
 190:	02 c0       	rjmp	.+4      	; 0x196 <dht_read_byte+0x26>
 192:	22 0f       	add	r18, r18
 194:	33 1f       	adc	r19, r19
 196:	4a 95       	dec	r20
 198:	e2 f7       	brpl	.-8      	; 0x192 <dht_read_byte+0x22>
 19a:	82 2b       	or	r24, r18
 19c:	4a 99       	sbic	0x09, 2	; 9
 19e:	fe cf       	rjmp	.-4      	; 0x19c <dht_read_byte+0x2c>
 1a0:	9f 5f       	subi	r25, 0xFF	; 255
 1a2:	98 30       	cpi	r25, 0x08	; 8
 1a4:	40 f3       	brcs	.-48     	; 0x176 <dht_read_byte+0x6>
 1a6:	08 95       	ret

000001a8 <read_dht11_temperature>:
 1a8:	0f 93       	push	r16
 1aa:	1f 93       	push	r17
 1ac:	cf 93       	push	r28
 1ae:	df 93       	push	r29
 1b0:	8a b1       	in	r24, 0x0a	; 10
 1b2:	84 60       	ori	r24, 0x04	; 4
 1b4:	8a b9       	out	0x0a, r24	; 10
 1b6:	8b b1       	in	r24, 0x0b	; 11
 1b8:	8b 7f       	andi	r24, 0xFB	; 251
 1ba:	8b b9       	out	0x0b, r24	; 11
 1bc:	2f ef       	ldi	r18, 0xFF	; 255
 1be:	89 ef       	ldi	r24, 0xF9	; 249
 1c0:	90 e0       	ldi	r25, 0x00	; 0
 1c2:	21 50       	subi	r18, 0x01	; 1
 1c4:	80 40       	sbci	r24, 0x00	; 0
 1c6:	90 40       	sbci	r25, 0x00	; 0
 1c8:	e1 f7       	brne	.-8      	; 0x1c2 <read_dht11_temperature+0x1a>
 1ca:	00 c0       	rjmp	.+0      	; 0x1cc <read_dht11_temperature+0x24>
 1cc:	00 00       	nop
 1ce:	8b b1       	in	r24, 0x0b	; 11
 1d0:	84 60       	ori	r24, 0x04	; 4
 1d2:	8b b9       	out	0x0b, r24	; 11
 1d4:	20 ea       	ldi	r18, 0xA0	; 160
 1d6:	2a 95       	dec	r18
 1d8:	f1 f7       	brne	.-4      	; 0x1d6 <read_dht11_temperature+0x2e>
 1da:	8a b1       	in	r24, 0x0a	; 10
 1dc:	8b 7f       	andi	r24, 0xFB	; 251
 1de:	8a b9       	out	0x0a, r24	; 10
 1e0:	80 e0       	ldi	r24, 0x00	; 0
 1e2:	90 e0       	ldi	r25, 0x00	; 0
 1e4:	05 c0       	rjmp	.+10     	; 0x1f0 <read_dht11_temperature+0x48>
 1e6:	01 96       	adiw	r24, 0x01	; 1
 1e8:	81 31       	cpi	r24, 0x11	; 17
 1ea:	27 e2       	ldi	r18, 0x27	; 39
 1ec:	92 07       	cpc	r25, r18
 1ee:	a8 f5       	brcc	.+106    	; 0x25a <read_dht11_temperature+0xb2>
 1f0:	4a 99       	sbic	0x09, 2	; 9
 1f2:	f9 cf       	rjmp	.-14     	; 0x1e6 <read_dht11_temperature+0x3e>
 1f4:	80 e0       	ldi	r24, 0x00	; 0
 1f6:	90 e0       	ldi	r25, 0x00	; 0
 1f8:	05 c0       	rjmp	.+10     	; 0x204 <read_dht11_temperature+0x5c>
 1fa:	01 96       	adiw	r24, 0x01	; 1
 1fc:	81 31       	cpi	r24, 0x11	; 17
 1fe:	27 e2       	ldi	r18, 0x27	; 39
 200:	92 07       	cpc	r25, r18
 202:	68 f5       	brcc	.+90     	; 0x25e <read_dht11_temperature+0xb6>
 204:	4a 9b       	sbis	0x09, 2	; 9
 206:	f9 cf       	rjmp	.-14     	; 0x1fa <read_dht11_temperature+0x52>
 208:	80 e0       	ldi	r24, 0x00	; 0
 20a:	90 e0       	ldi	r25, 0x00	; 0
 20c:	05 c0       	rjmp	.+10     	; 0x218 <read_dht11_temperature+0x70>
 20e:	01 96       	adiw	r24, 0x01	; 1
 210:	81 31       	cpi	r24, 0x11	; 17
 212:	27 e2       	ldi	r18, 0x27	; 39
 214:	92 07       	cpc	r25, r18
 216:	28 f5       	brcc	.+74     	; 0x262 <read_dht11_temperature+0xba>
 218:	4a 99       	sbic	0x09, 2	; 9
 21a:	f9 cf       	rjmp	.-14     	; 0x20e <read_dht11_temperature+0x66>
 21c:	80 e0       	ldi	r24, 0x00	; 0
 21e:	90 e0       	ldi	r25, 0x00	; 0
 220:	05 c0       	rjmp	.+10     	; 0x22c <read_dht11_temperature+0x84>
 222:	01 96       	adiw	r24, 0x01	; 1
 224:	81 31       	cpi	r24, 0x11	; 17
 226:	27 e2       	ldi	r18, 0x27	; 39
 228:	92 07       	cpc	r25, r18
 22a:	e8 f4       	brcc	.+58     	; 0x266 <read_dht11_temperature+0xbe>
 22c:	4a 9b       	sbis	0x09, 2	; 9
 22e:	f9 cf       	rjmp	.-14     	; 0x222 <read_dht11_temperature+0x7a>
 230:	0e 94 b8 00 	call	0x170	; 0x170 <dht_read_byte>
 234:	08 2f       	mov	r16, r24
 236:	0e 94 b8 00 	call	0x170	; 0x170 <dht_read_byte>
 23a:	d8 2f       	mov	r29, r24
 23c:	0e 94 b8 00 	call	0x170	; 0x170 <dht_read_byte>
 240:	c8 2f       	mov	r28, r24
 242:	0e 94 b8 00 	call	0x170	; 0x170 <dht_read_byte>
 246:	18 2f       	mov	r17, r24
 248:	0e 94 b8 00 	call	0x170	; 0x170 <dht_read_byte>
 24c:	d0 0f       	add	r29, r16
 24e:	dc 0f       	add	r29, r28
 250:	d1 0f       	add	r29, r17
 252:	8d 13       	cpse	r24, r29
 254:	0a c0       	rjmp	.+20     	; 0x26a <read_dht11_temperature+0xc2>
 256:	8c 2f       	mov	r24, r28
 258:	09 c0       	rjmp	.+18     	; 0x26c <read_dht11_temperature+0xc4>
 25a:	8f ef       	ldi	r24, 0xFF	; 255
 25c:	07 c0       	rjmp	.+14     	; 0x26c <read_dht11_temperature+0xc4>
 25e:	8e ef       	ldi	r24, 0xFE	; 254
 260:	05 c0       	rjmp	.+10     	; 0x26c <read_dht11_temperature+0xc4>
 262:	8d ef       	ldi	r24, 0xFD	; 253
 264:	03 c0       	rjmp	.+6      	; 0x26c <read_dht11_temperature+0xc4>
 266:	8c ef       	ldi	r24, 0xFC	; 252
 268:	01 c0       	rjmp	.+2      	; 0x26c <read_dht11_temperature+0xc4>
 26a:	8b ef       	ldi	r24, 0xFB	; 251
 26c:	df 91       	pop	r29
 26e:	cf 91       	pop	r28
 270:	1f 91       	pop	r17
 272:	0f 91       	pop	r16
 274:	08 95       	ret

00000276 <i2c_start>:
 276:	94 ea       	ldi	r25, 0xA4	; 164
 278:	90 93 bc 00 	sts	0x00BC, r25	; 0x8000bc <__TEXT_REGION_LENGTH__+0x7f80bc>
 27c:	90 91 bc 00 	lds	r25, 0x00BC	; 0x8000bc <__TEXT_REGION_LENGTH__+0x7f80bc>
 280:	99 23       	and	r25, r25
 282:	e4 f7       	brge	.-8      	; 0x27c <i2c_start+0x6>
 284:	90 91 b9 00 	lds	r25, 0x00B9	; 0x8000b9 <__TEXT_REGION_LENGTH__+0x7f80b9>
 288:	98 7f       	andi	r25, 0xF8	; 248
 28a:	98 30       	cpi	r25, 0x08	; 8
 28c:	81 f4       	brne	.+32     	; 0x2ae <i2c_start+0x38>
 28e:	80 93 bb 00 	sts	0x00BB, r24	; 0x8000bb <__TEXT_REGION_LENGTH__+0x7f80bb>
 292:	84 e8       	ldi	r24, 0x84	; 132
 294:	80 93 bc 00 	sts	0x00BC, r24	; 0x8000bc <__TEXT_REGION_LENGTH__+0x7f80bc>
 298:	80 91 bc 00 	lds	r24, 0x00BC	; 0x8000bc <__TEXT_REGION_LENGTH__+0x7f80bc>
 29c:	88 23       	and	r24, r24
 29e:	e4 f7       	brge	.-8      	; 0x298 <i2c_start+0x22>
 2a0:	80 91 b9 00 	lds	r24, 0x00B9	; 0x8000b9 <__TEXT_REGION_LENGTH__+0x7f80b9>
 2a4:	88 7f       	andi	r24, 0xF8	; 248
 2a6:	88 31       	cpi	r24, 0x18	; 24
 2a8:	21 f0       	breq	.+8      	; 0x2b2 <i2c_start+0x3c>
 2aa:	82 e0       	ldi	r24, 0x02	; 2
 2ac:	08 95       	ret
 2ae:	81 e0       	ldi	r24, 0x01	; 1
 2b0:	08 95       	ret
 2b2:	80 e0       	ldi	r24, 0x00	; 0
 2b4:	08 95       	ret

000002b6 <i2c_write>:
 2b6:	80 93 bb 00 	sts	0x00BB, r24	; 0x8000bb <__TEXT_REGION_LENGTH__+0x7f80bb>
 2ba:	84 e8       	ldi	r24, 0x84	; 132
 2bc:	80 93 bc 00 	sts	0x00BC, r24	; 0x8000bc <__TEXT_REGION_LENGTH__+0x7f80bc>
 2c0:	80 91 bc 00 	lds	r24, 0x00BC	; 0x8000bc <__TEXT_REGION_LENGTH__+0x7f80bc>
 2c4:	88 23       	and	r24, r24
 2c6:	e4 f7       	brge	.-8      	; 0x2c0 <i2c_write+0xa>
 2c8:	80 91 b9 00 	lds	r24, 0x00B9	; 0x8000b9 <__TEXT_REGION_LENGTH__+0x7f80b9>
 2cc:	88 7f       	andi	r24, 0xF8	; 248
 2ce:	88 32       	cpi	r24, 0x28	; 40
 2d0:	11 f0       	breq	.+4      	; 0x2d6 <i2c_write+0x20>
 2d2:	81 e0       	ldi	r24, 0x01	; 1
 2d4:	08 95       	ret
 2d6:	80 e0       	ldi	r24, 0x00	; 0
 2d8:	08 95       	ret

000002da <i2c_stop>:
 2da:	84 e9       	ldi	r24, 0x94	; 148
 2dc:	80 93 bc 00 	sts	0x00BC, r24	; 0x8000bc <__TEXT_REGION_LENGTH__+0x7f80bc>
 2e0:	85 e3       	ldi	r24, 0x35	; 53
 2e2:	8a 95       	dec	r24
 2e4:	f1 f7       	brne	.-4      	; 0x2e2 <i2c_stop+0x8>
 2e6:	00 00       	nop
 2e8:	08 95       	ret

000002ea <lcd_write_nibble>:
 2ea:	cf 93       	push	r28
 2ec:	80 7f       	andi	r24, 0xF0	; 240
 2ee:	c8 2f       	mov	r28, r24
 2f0:	c8 60       	ori	r28, 0x08	; 8
 2f2:	61 11       	cpse	r22, r1
 2f4:	c1 60       	ori	r28, 0x01	; 1
 2f6:	8e e4       	ldi	r24, 0x4E	; 78
 2f8:	0e 94 3b 01 	call	0x276	; 0x276 <i2c_start>
 2fc:	8c 2f       	mov	r24, r28
 2fe:	84 60       	ori	r24, 0x04	; 4
 300:	0e 94 5b 01 	call	0x2b6	; 0x2b6 <i2c_write>
 304:	85 e0       	ldi	r24, 0x05	; 5
 306:	8a 95       	dec	r24
 308:	f1 f7       	brne	.-4      	; 0x306 <lcd_write_nibble+0x1c>
 30a:	00 00       	nop
 30c:	8c 2f       	mov	r24, r28
 30e:	0e 94 5b 01 	call	0x2b6	; 0x2b6 <i2c_write>
 312:	0e 94 6d 01 	call	0x2da	; 0x2da <i2c_stop>
 316:	cf 91       	pop	r28
 318:	08 95       	ret

0000031a <lcd_write_byte>:
 31a:	cf 93       	push	r28
 31c:	df 93       	push	r29
 31e:	c8 2f       	mov	r28, r24
 320:	d6 2f       	mov	r29, r22
 322:	80 7f       	andi	r24, 0xF0	; 240
 324:	0e 94 75 01 	call	0x2ea	; 0x2ea <lcd_write_nibble>
 328:	6d 2f       	mov	r22, r29
 32a:	8c 2f       	mov	r24, r28
 32c:	82 95       	swap	r24
 32e:	80 7f       	andi	r24, 0xF0	; 240
 330:	0e 94 75 01 	call	0x2ea	; 0x2ea <lcd_write_nibble>
 334:	8f e3       	ldi	r24, 0x3F	; 63
 336:	9f e1       	ldi	r25, 0x1F	; 31
 338:	01 97       	sbiw	r24, 0x01	; 1
 33a:	f1 f7       	brne	.-4      	; 0x338 <lcd_write_byte+0x1e>
 33c:	00 c0       	rjmp	.+0      	; 0x33e <lcd_write_byte+0x24>
 33e:	00 00       	nop
 340:	df 91       	pop	r29
 342:	cf 91       	pop	r28
 344:	08 95       	ret

00000346 <lcd_command>:
 346:	60 e0       	ldi	r22, 0x00	; 0
 348:	0e 94 8d 01 	call	0x31a	; 0x31a <lcd_write_byte>
 34c:	08 95       	ret

0000034e <lcd_data>:
 34e:	61 e0       	ldi	r22, 0x01	; 1
 350:	0e 94 8d 01 	call	0x31a	; 0x31a <lcd_write_byte>
 354:	08 95       	ret

00000356 <lcd_init>:
 356:	2f ef       	ldi	r18, 0xFF	; 255
 358:	80 e7       	ldi	r24, 0x70	; 112
 35a:	92 e0       	ldi	r25, 0x02	; 2
 35c:	21 50       	subi	r18, 0x01	; 1
 35e:	80 40       	sbci	r24, 0x00	; 0
 360:	90 40       	sbci	r25, 0x00	; 0
 362:	e1 f7       	brne	.-8      	; 0x35c <lcd_init+0x6>
 364:	00 c0       	rjmp	.+0      	; 0x366 <lcd_init+0x10>
 366:	00 00       	nop
 368:	60 e0       	ldi	r22, 0x00	; 0
 36a:	80 e3       	ldi	r24, 0x30	; 48
 36c:	0e 94 75 01 	call	0x2ea	; 0x2ea <lcd_write_nibble>
 370:	8f e1       	ldi	r24, 0x1F	; 31
 372:	9e e4       	ldi	r25, 0x4E	; 78
 374:	01 97       	sbiw	r24, 0x01	; 1
 376:	f1 f7       	brne	.-4      	; 0x374 <lcd_init+0x1e>
 378:	00 c0       	rjmp	.+0      	; 0x37a <lcd_init+0x24>
 37a:	00 00       	nop
 37c:	60 e0       	ldi	r22, 0x00	; 0
 37e:	80 e3       	ldi	r24, 0x30	; 48
 380:	0e 94 75 01 	call	0x2ea	; 0x2ea <lcd_write_nibble>
 384:	87 e5       	ldi	r24, 0x57	; 87
 386:	92 e0       	ldi	r25, 0x02	; 2
 388:	01 97       	sbiw	r24, 0x01	; 1
 38a:	f1 f7       	brne	.-4      	; 0x388 <lcd_init+0x32>
 38c:	00 c0       	rjmp	.+0      	; 0x38e <lcd_init+0x38>
 38e:	00 00       	nop
 390:	60 e0       	ldi	r22, 0x00	; 0
 392:	80 e3       	ldi	r24, 0x30	; 48
 394:	0e 94 75 01 	call	0x2ea	; 0x2ea <lcd_write_nibble>
 398:	60 e0       	ldi	r22, 0x00	; 0
 39a:	80 e2       	ldi	r24, 0x20	; 32
 39c:	0e 94 75 01 	call	0x2ea	; 0x2ea <lcd_write_nibble>
 3a0:	88 e2       	ldi	r24, 0x28	; 40
 3a2:	0e 94 a3 01 	call	0x346	; 0x346 <lcd_command>
 3a6:	8c e0       	ldi	r24, 0x0C	; 12
 3a8:	0e 94 a3 01 	call	0x346	; 0x346 <lcd_command>
 3ac:	86 e0       	ldi	r24, 0x06	; 6
 3ae:	0e 94 a3 01 	call	0x346	; 0x346 <lcd_command>
 3b2:	81 e0       	ldi	r24, 0x01	; 1
 3b4:	0e 94 a3 01 	call	0x346	; 0x346 <lcd_command>
 3b8:	8f e3       	ldi	r24, 0x3F	; 63
 3ba:	9f e1       	ldi	r25, 0x1F	; 31
 3bc:	01 97       	sbiw	r24, 0x01	; 1
 3be:	f1 f7       	brne	.-4      	; 0x3bc <lcd_init+0x66>
 3c0:	00 c0       	rjmp	.+0      	; 0x3c2 <lcd_init+0x6c>
 3c2:	00 00       	nop
 3c4:	08 95       	ret

000003c6 <lcd_print>:
 3c6:	cf 93       	push	r28
 3c8:	df 93       	push	r29
 3ca:	ec 01       	movw	r28, r24
 3cc:	03 c0       	rjmp	.+6      	; 0x3d4 <lcd_print+0xe>
 3ce:	21 96       	adiw	r28, 0x01	; 1
 3d0:	0e 94 a7 01 	call	0x34e	; 0x34e <lcd_data>
 3d4:	88 81       	ld	r24, Y
 3d6:	81 11       	cpse	r24, r1
 3d8:	fa cf       	rjmp	.-12     	; 0x3ce <lcd_print+0x8>
 3da:	df 91       	pop	r29
 3dc:	cf 91       	pop	r28
 3de:	08 95       	ret

000003e0 <main>:


int main(void)
{
 3e0:	cf 93       	push	r28
 3e2:	df 93       	push	r29
 3e4:	cd b7       	in	r28, 0x3d	; 61
 3e6:	de b7       	in	r29, 0x3e	; 62
 3e8:	28 97       	sbiw	r28, 0x08	; 8
 3ea:	0f b6       	in	r0, 0x3f	; 63
 3ec:	f8 94       	cli
 3ee:	de bf       	out	0x3e, r29	; 62
 3f0:	0f be       	out	0x3f, r0	; 63
 3f2:	cd bf       	out	0x3d, r28	; 61
	init_gpio();
 3f4:	0e 94 71 00 	call	0xe2	; 0xe2 <init_gpio>
	init_pwm();
 3f8:	0e 94 84 00 	call	0x108	; 0x108 <init_pwm>
	ADC_init();
 3fc:	0e 94 89 00 	call	0x112	; 0x112 <ADC_init>
	init_uart();
 400:	0e 94 90 00 	call	0x120	; 0x120 <init_uart>
	i2c_init();
 404:	0e 94 9a 00 	call	0x134	; 0x134 <i2c_init>
    lcd_init();
 408:	0e 94 ab 01 	call	0x356	; 0x356 <lcd_init>
	#else
		//round up by default
		__ticks_dc = (uint32_t)(ceil(fabs(__tmp)));
	#endif

	__builtin_avr_delay_cycles(__ticks_dc);
 40c:	2f ef       	ldi	r18, 0xFF	; 255
 40e:	81 ee       	ldi	r24, 0xE1	; 225
 410:	94 e0       	ldi	r25, 0x04	; 4
 412:	21 50       	subi	r18, 0x01	; 1
 414:	80 40       	sbci	r24, 0x00	; 0
 416:	90 40       	sbci	r25, 0x00	; 0
 418:	e1 f7       	brne	.-8      	; 0x412 <__EEPROM_REGION_LENGTH__+0x12>
 41a:	00 c0       	rjmp	.+0      	; 0x41c <__EEPROM_REGION_LENGTH__+0x1c>
 41c:	00 00       	nop
	_delay_ms(100);
	
	while (1)
	{
		int8_t tempC = read_dht11_temperature();
 41e:	0e 94 d4 00 	call	0x1a8	; 0x1a8 <read_dht11_temperature>
 422:	18 2f       	mov	r17, r24
		char buf[8];

		lcd_command(0x80);
 424:	80 e8       	ldi	r24, 0x80	; 128
 426:	0e 94 a3 01 	call	0x346	; 0x346 <lcd_command>
		lcd_print("TEMP: ");
 42a:	80 e0       	ldi	r24, 0x00	; 0
 42c:	91 e0       	ldi	r25, 0x01	; 1
 42e:	0e 94 e3 01 	call	0x3c6	; 0x3c6 <lcd_print>
    } else if (__radix < 2 || __radix > 36) {
	*__s = 0;
	return __s;
    } else {
	extern char *__itoa_ncheck (int, char *, unsigned char);
	return __itoa_ncheck (__val, __s, __radix);
 432:	4a e0       	ldi	r20, 0x0A	; 10
 434:	be 01       	movw	r22, r28
 436:	6f 5f       	subi	r22, 0xFF	; 255
 438:	7f 4f       	sbci	r23, 0xFF	; 255
 43a:	81 2f       	mov	r24, r17
 43c:	11 0f       	add	r17, r17
 43e:	99 0b       	sbc	r25, r25
 440:	0e 94 44 02 	call	0x488	; 0x488 <__itoa_ncheck>
		itoa(tempC, buf, 10);
		lcd_print(buf);
 444:	ce 01       	movw	r24, r28
 446:	01 96       	adiw	r24, 0x01	; 1
 448:	0e 94 e3 01 	call	0x3c6	; 0x3c6 <lcd_print>
		lcd_print("C ");
 44c:	87 e0       	ldi	r24, 0x07	; 7
 44e:	91 e0       	ldi	r25, 0x01	; 1
 450:	0e 94 e3 01 	call	0x3c6	; 0x3c6 <lcd_print>



		OCR0A = ADC_read(0) >> 2;
 454:	80 e0       	ldi	r24, 0x00	; 0
 456:	0e 94 a3 00 	call	0x146	; 0x146 <ADC_read>
 45a:	96 95       	lsr	r25
 45c:	87 95       	ror	r24
 45e:	96 95       	lsr	r25
 460:	87 95       	ror	r24
 462:	87 bd       	out	0x27, r24	; 39
		OCR0B = ADC_read(1) >> 2;
 464:	81 e0       	ldi	r24, 0x01	; 1
 466:	0e 94 a3 00 	call	0x146	; 0x146 <ADC_read>
 46a:	96 95       	lsr	r25
 46c:	87 95       	ror	r24
 46e:	96 95       	lsr	r25
 470:	87 95       	ror	r24
 472:	88 bd       	out	0x28, r24	; 40
 474:	2f ef       	ldi	r18, 0xFF	; 255
 476:	89 e6       	ldi	r24, 0x69	; 105
 478:	98 e1       	ldi	r25, 0x18	; 24
 47a:	21 50       	subi	r18, 0x01	; 1
 47c:	80 40       	sbci	r24, 0x00	; 0
 47e:	90 40       	sbci	r25, 0x00	; 0
 480:	e1 f7       	brne	.-8      	; 0x47a <__EEPROM_REGION_LENGTH__+0x7a>
 482:	00 c0       	rjmp	.+0      	; 0x484 <__EEPROM_REGION_LENGTH__+0x84>
 484:	00 00       	nop
 486:	cb cf       	rjmp	.-106    	; 0x41e <__EEPROM_REGION_LENGTH__+0x1e>

00000488 <__itoa_ncheck>:
 488:	bb 27       	eor	r27, r27
 48a:	4a 30       	cpi	r20, 0x0A	; 10
 48c:	31 f4       	brne	.+12     	; 0x49a <__itoa_ncheck+0x12>
 48e:	99 23       	and	r25, r25
 490:	22 f4       	brpl	.+8      	; 0x49a <__itoa_ncheck+0x12>
 492:	bd e2       	ldi	r27, 0x2D	; 45
 494:	90 95       	com	r25
 496:	81 95       	neg	r24
 498:	9f 4f       	sbci	r25, 0xFF	; 255
 49a:	0c 94 50 02 	jmp	0x4a0	; 0x4a0 <__utoa_common>

0000049e <__utoa_ncheck>:
 49e:	bb 27       	eor	r27, r27

000004a0 <__utoa_common>:
 4a0:	fb 01       	movw	r30, r22
 4a2:	55 27       	eor	r21, r21
 4a4:	aa 27       	eor	r26, r26
 4a6:	88 0f       	add	r24, r24
 4a8:	99 1f       	adc	r25, r25
 4aa:	aa 1f       	adc	r26, r26
 4ac:	a4 17       	cp	r26, r20
 4ae:	10 f0       	brcs	.+4      	; 0x4b4 <__utoa_common+0x14>
 4b0:	a4 1b       	sub	r26, r20
 4b2:	83 95       	inc	r24
 4b4:	50 51       	subi	r21, 0x10	; 16
 4b6:	b9 f7       	brne	.-18     	; 0x4a6 <__utoa_common+0x6>
 4b8:	a0 5d       	subi	r26, 0xD0	; 208
 4ba:	aa 33       	cpi	r26, 0x3A	; 58
 4bc:	08 f0       	brcs	.+2      	; 0x4c0 <__utoa_common+0x20>
 4be:	a9 5d       	subi	r26, 0xD9	; 217
 4c0:	a1 93       	st	Z+, r26
 4c2:	00 97       	sbiw	r24, 0x00	; 0
 4c4:	79 f7       	brne	.-34     	; 0x4a4 <__utoa_common+0x4>
 4c6:	b1 11       	cpse	r27, r1
 4c8:	b1 93       	st	Z+, r27
 4ca:	11 92       	st	Z+, r1
 4cc:	cb 01       	movw	r24, r22
 4ce:	0c 94 69 02 	jmp	0x4d2	; 0x4d2 <strrev>

000004d2 <strrev>:
 4d2:	dc 01       	movw	r26, r24
 4d4:	fc 01       	movw	r30, r24
 4d6:	67 2f       	mov	r22, r23
 4d8:	71 91       	ld	r23, Z+
 4da:	77 23       	and	r23, r23
 4dc:	e1 f7       	brne	.-8      	; 0x4d6 <strrev+0x4>
 4de:	32 97       	sbiw	r30, 0x02	; 2
 4e0:	04 c0       	rjmp	.+8      	; 0x4ea <strrev+0x18>
 4e2:	7c 91       	ld	r23, X
 4e4:	6d 93       	st	X+, r22
 4e6:	70 83       	st	Z, r23
 4e8:	62 91       	ld	r22, -Z
 4ea:	ae 17       	cp	r26, r30
 4ec:	bf 07       	cpc	r27, r31
 4ee:	c8 f3       	brcs	.-14     	; 0x4e2 <strrev+0x10>
 4f0:	08 95       	ret

000004f2 <_exit>:
 4f2:	f8 94       	cli

000004f4 <__stop_program>:
 4f4:	ff cf       	rjmp	.-2      	; 0x4f4 <__stop_program>
